target datalayout = "e-m:e-p270:32:32-p271:32:32-p272:64:64-i64:64-i128:128-f80:128-n8:16:32:64-S128"
target triple = "x86_64-pc-linux-gnu"

%"struct.Luau::Compile::CostVisitor" = type { %"class.Luau::AstVisitor", ptr, %"class.Luau::DenseHashMap", %"struct.Luau::Compile::Cost" }
%"class.Luau::AstVisitor" = type { ptr }
%"class.Luau::DenseHashMap" = type { %"class.Luau::detail::DenseHashTable" }
%"class.Luau::detail::DenseHashTable" = type <{ ptr, i64, i64, ptr, [8 x i8] }>
%"struct.Luau::Compile::Cost" = type { i64, i64 }
%"struct.std::pair" = type { ptr, i64 }

; Function Attrs: mustprogress nounwind uwtable
define linkonce_odr dso_local void @_ZN4Luau6detail16ItemInterfaceMapIPNS_8AstLocalEmE7destroyEPSt4pairIS3_mEm(ptr noundef %0, i64 noundef %1) #4 comdat align 2 {
  %3 = alloca ptr, align 8
  %4 = alloca i64, align 8
  %5 = alloca i64, align 8
  store ptr %0, ptr %3, align 8, !tbaa !222
  store i64 %1, ptr %4, align 8, !tbaa !14
  call void @llvm.lifetime.start.p0(i64 8, ptr %5) #10
  store i64 0, ptr %5, align 8, !tbaa !14
  br label %6

6:                                                ; preds = %12, %2
  %7 = load i64, ptr %5, align 8, !tbaa !14
  %8 = load i64, ptr %4, align 8, !tbaa !14
  %9 = icmp ult i64 %7, %8
  br i1 %9, label %11, label %10

10:                                               ; preds = %6
  call void @llvm.lifetime.end.p0(i64 8, ptr %5) #10
  br label %15

11:                                               ; preds = %6
  br label %12

12:                                               ; preds = %11
  %13 = load i64, ptr %5, align 8, !tbaa !14
  %14 = add i64 %13, 1
  store i64 %14, ptr %5, align 8, !tbaa !14
  br label %6, !llvm.loop !224

15:                                               ; preds = %10
  ret void
}

; Function Attrs: noinline noreturn nounwind uwtable
define linkonce_odr hidden void @__clang_call_terminate(ptr noundef %0) #7 comdat {
  %2 = call ptr @__cxa_begin_catch(ptr %0) #10
  call void @_ZSt9terminatev() #13
  unreachable
}

; Function Attrs: mustprogress uwtable
define linkonce_odr dso_local void @_ZN4Luau6detail14DenseHashTableIPNS_8AstLocalESt4pairIS3_mES4_IKS3_mENS0_16ItemInterfaceMapIS3_mEENS_16DenseHashPointerESt8equal_toIS3_EE7destroyEv(ptr noundef nonnull align 8 dereferenceable(34) %0) #2 comdat align 2 {
  %2 = alloca ptr, align 8
  store ptr %0, ptr %2, align 8, !tbaa !216
  %3 = load ptr, ptr %2, align 8
  %4 = getelementptr inbounds nuw %"class.Luau::detail::DenseHashTable", ptr %3, i32 0, i32 0
  %5 = load ptr, ptr %4, align 8, !tbaa !218
  %6 = getelementptr inbounds nuw %"class.Luau::detail::DenseHashTable", ptr %3, i32 0, i32 1
  %7 = load i64, ptr %6, align 8, !tbaa !219
  call void @_ZN4Luau6detail16ItemInterfaceMapIPNS_8AstLocalEmE7destroyEPSt4pairIS3_mEm(ptr noundef %5, i64 noundef %7)
  %8 = getelementptr inbounds nuw %"class.Luau::detail::DenseHashTable", ptr %3, i32 0, i32 0
  %9 = load ptr, ptr %8, align 8, !tbaa !218
  call void @_ZdlPv(ptr noundef %9) #10
  %10 = getelementptr inbounds nuw %"class.Luau::detail::DenseHashTable", ptr %3, i32 0, i32 0
  store ptr null, ptr %10, align 8, !tbaa !218
  %11 = getelementptr inbounds nuw %"class.Luau::detail::DenseHashTable", ptr %3, i32 0, i32 1
  store i64 0, ptr %11, align 8, !tbaa !219
  ret void
}

; Function Attrs: mustprogress nounwind uwtable
define linkonce_odr dso_local void @_ZN4Luau6detail16ItemInterfaceMapIPNS_8AstLocalEmE4fillEPSt4pairIS3_mEmRKS3_(ptr noundef %0, i64 noundef %1, ptr noundef nonnull align 8 dereferenceable(8) %2) #4 comdat align 2 {
  %4 = alloca ptr, align 8
  %5 = alloca i64, align 8
  %6 = alloca ptr, align 8
  %7 = alloca i64, align 8
  store ptr %0, ptr %4, align 8, !tbaa !222
  store i64 %1, ptr %5, align 8, !tbaa !14
  store ptr %2, ptr %6, align 8, !tbaa !11
  call void @llvm.lifetime.start.p0(i64 8, ptr %7) #10
  store i64 0, ptr %7, align 8, !tbaa !14
  br label %8

8:                                                ; preds = %24, %3
  %9 = load i64, ptr %7, align 8, !tbaa !14
  %10 = load i64, ptr %5, align 8, !tbaa !14
  %11 = icmp ult i64 %9, %10
  br i1 %11, label %13, label %12

12:                                               ; preds = %8
  call void @llvm.lifetime.end.p0(i64 8, ptr %7) #10
  br label %27

13:                                               ; preds = %8
  %14 = load ptr, ptr %4, align 8, !tbaa !222
  %15 = load i64, ptr %7, align 8, !tbaa !14
  %16 = getelementptr inbounds nuw %"struct.std::pair", ptr %14, i64 %15
  %17 = getelementptr inbounds nuw %"struct.std::pair", ptr %16, i32 0, i32 0
  %18 = load ptr, ptr %6, align 8, !tbaa !11
  %19 = load ptr, ptr %18, align 8, !tbaa !34
  store ptr %19, ptr %17, align 8, !tbaa !34
  %20 = load ptr, ptr %4, align 8, !tbaa !222
  %21 = load i64, ptr %7, align 8, !tbaa !14
  %22 = getelementptr inbounds nuw %"struct.std::pair", ptr %20, i64 %21
  %23 = getelementptr inbounds nuw %"struct.std::pair", ptr %22, i32 0, i32 1
  store i64 0, ptr %23, align 8, !tbaa !14
  br label %24

24:                                               ; preds = %13
  %25 = load i64, ptr %7, align 8, !tbaa !14
  %26 = add i64 %25, 1
  store i64 %26, ptr %7, align 8, !tbaa !14
  br label %8, !llvm.loop !223

27:                                               ; preds = %12
  ret void
}

; Function Attrs: mustprogress nounwind uwtable
define linkonce_odr dso_local void @_ZN4Luau6detail14DenseHashTableIPNS_8AstLocalESt4pairIS3_mES4_IKS3_mENS0_16ItemInterfaceMapIS3_mEENS_16DenseHashPointerESt8equal_toIS3_EED2Ev(ptr noundef nonnull align 8 dereferenceable(34) %0) unnamed_addr #4 comdat align 2 personality ptr @__gxx_personality_v0 {
  %2 = alloca ptr, align 8
  store ptr %0, ptr %2, align 8, !tbaa !216
  %3 = load ptr, ptr %2, align 8
  %4 = getelementptr inbounds nuw %"class.Luau::detail::DenseHashTable", ptr %3, i32 0, i32 0
  %5 = load ptr, ptr %4, align 8, !tbaa !218
  %6 = icmp ne ptr %5, null
  br i1 %6, label %7, label %9

7:                                                ; preds = %1
  invoke void @_ZN4Luau6detail14DenseHashTableIPNS_8AstLocalESt4pairIS3_mES4_IKS3_mENS0_16ItemInterfaceMapIS3_mEENS_16DenseHashPointerESt8equal_toIS3_EE7destroyEv(ptr noundef nonnull align 8 dereferenceable(34) %3)
          to label %8 unwind label %10

8:                                                ; preds = %7
  br label %9

9:                                                ; preds = %8, %1
  ret void

10:                                               ; preds = %7
  %11 = landingpad { ptr, i32 }
          catch ptr null
  %12 = extractvalue { ptr, i32 } %11, 0
  call void @__clang_call_terminate(ptr %12) #13
  unreachable
}

; Function Attrs: mustprogress uwtable
define linkonce_odr dso_local void @_ZN4Luau6detail14DenseHashTableIPNS_8AstLocalESt4pairIS3_mES4_IKS3_mENS0_16ItemInterfaceMapIS3_mEENS_16DenseHashPointerESt8equal_toIS3_EEC2ERS6_m(ptr noundef nonnull align 8 dereferenceable(34) %0, ptr noundef nonnull align 8 dereferenceable(8) %1, i64 noundef %2) unnamed_addr #2 comdat align 2 {
  %4 = alloca ptr, align 8
  %5 = alloca ptr, align 8
  %6 = alloca i64, align 8
  store ptr %0, ptr %4, align 8, !tbaa !216
  store ptr %1, ptr %5, align 8, !tbaa !11
  store i64 %2, ptr %6, align 8, !tbaa !14
  %7 = load ptr, ptr %4, align 8
  %8 = getelementptr inbounds nuw %"class.Luau::detail::DenseHashTable", ptr %7, i32 0, i32 0
  store ptr null, ptr %8, align 8, !tbaa !218
  %9 = getelementptr inbounds nuw %"class.Luau::detail::DenseHashTable", ptr %7, i32 0, i32 1
  store i64 0, ptr %9, align 8, !tbaa !219
  %10 = getelementptr inbounds nuw %"class.Luau::detail::DenseHashTable", ptr %7, i32 0, i32 2
  store i64 0, ptr %10, align 8, !tbaa !220
  %11 = getelementptr inbounds nuw %"class.Luau::detail::DenseHashTable", ptr %7, i32 0, i32 3
  %12 = load ptr, ptr %5, align 8, !tbaa !11
  %13 = load ptr, ptr %12, align 8, !tbaa !34
  store ptr %13, ptr %11, align 8, !tbaa !221
  %14 = load i64, ptr %6, align 8, !tbaa !14
  %15 = icmp ne i64 %14, 0
  br i1 %15, label %16, label %27

16:                                               ; preds = %3
  %17 = load i64, ptr %6, align 8, !tbaa !14
  %18 = mul i64 16, %17
  %19 = call noalias noundef nonnull ptr @_Znwm(i64 noundef %18) #12
  %20 = getelementptr inbounds nuw %"class.Luau::detail::DenseHashTable", ptr %7, i32 0, i32 0
  store ptr %19, ptr %20, align 8, !tbaa !218
  %21 = load i64, ptr %6, align 8, !tbaa !14
  %22 = getelementptr inbounds nuw %"class.Luau::detail::DenseHashTable", ptr %7, i32 0, i32 1
  store i64 %21, ptr %22, align 8, !tbaa !219
  %23 = getelementptr inbounds nuw %"class.Luau::detail::DenseHashTable", ptr %7, i32 0, i32 0
  %24 = load ptr, ptr %23, align 8, !tbaa !218
  %25 = load i64, ptr %6, align 8, !tbaa !14
  %26 = load ptr, ptr %5, align 8, !tbaa !11
  call void @_ZN4Luau6detail16ItemInterfaceMapIPNS_8AstLocalEmE4fillEPSt4pairIS3_mEmRKS3_(ptr noundef %24, i64 noundef %25, ptr noundef nonnull align 8 dereferenceable(8) %26)
  br label %27

27:                                               ; preds = %16, %3
  ret void
}

; Function Attrs: mustprogress nounwind uwtable
define linkonce_odr dso_local void @_ZN4Luau10AstVisitorD2Ev(ptr noundef nonnull align 8 dereferenceable(8) %0) unnamed_addr #4 comdat align 2 {
  %2 = alloca ptr, align 8
  store ptr %0, ptr %2, align 8, !tbaa !46
  ret void
}

; Function Attrs: inlinehint mustprogress nounwind uwtable
define linkonce_odr dso_local void @_ZN4Luau12DenseHashMapIPNS_8AstLocalEmNS_16DenseHashPointerESt8equal_toIS2_EED2Ev(ptr noundef nonnull align 8 dereferenceable(40) %0) unnamed_addr #3 comdat align 2 {
  %2 = alloca ptr, align 8
  store ptr %0, ptr %2, align 8, !tbaa !35
  %3 = load ptr, ptr %2, align 8
  %4 = getelementptr inbounds nuw %"class.Luau::DenseHashMap", ptr %3, i32 0, i32 0
  call void @_ZN4Luau6detail14DenseHashTableIPNS_8AstLocalESt4pairIS3_mES4_IKS3_mENS0_16ItemInterfaceMapIS3_mEENS_16DenseHashPointerESt8equal_toIS3_EED2Ev(ptr noundef nonnull align 8 dereferenceable(34) %4) #10
  ret void
}

; Function Attrs: mustprogress nounwind uwtable
define linkonce_odr dso_local void @_ZN4Luau7Compile4CostC2Eim(ptr noundef nonnull align 8 dereferenceable(16) %0, i32 noundef %1, i64 noundef %2) unnamed_addr #4 comdat align 2 {
  %4 = alloca ptr, align 8
  %5 = alloca i32, align 4
  %6 = alloca i64, align 8
  store ptr %0, ptr %4, align 8, !tbaa !48
  store i32 %1, ptr %5, align 4, !tbaa !4
  store i64 %2, ptr %6, align 8, !tbaa !14
  %7 = load ptr, ptr %4, align 8
  %8 = getelementptr inbounds nuw %"struct.Luau::Compile::Cost", ptr %7, i32 0, i32 0
  %9 = load i32, ptr %5, align 4, !tbaa !4
  %10 = icmp slt i32 %9, 127
  br i1 %10, label %11, label %13

11:                                               ; preds = %3
  %12 = load i32, ptr %5, align 4, !tbaa !4
  br label %14

13:                                               ; preds = %3
  br label %14

14:                                               ; preds = %13, %11
  %15 = phi i32 [ %12, %11 ], [ 127, %13 ]
  %16 = sext i32 %15 to i64
  store i64 %16, ptr %8, align 8, !tbaa !50
  %17 = getelementptr inbounds nuw %"struct.Luau::Compile::Cost", ptr %7, i32 0, i32 1
  %18 = load i64, ptr %6, align 8, !tbaa !14
  store i64 %18, ptr %17, align 8, !tbaa !51
  ret void
}

; Function Attrs: mustprogress uwtable
define linkonce_odr dso_local void @_ZN4Luau12DenseHashMapIPNS_8AstLocalEmNS_16DenseHashPointerESt8equal_toIS2_EEC2ERKS2_m(ptr noundef nonnull align 8 dereferenceable(40) %0, ptr noundef nonnull align 8 dereferenceable(8) %1, i64 noundef %2) unnamed_addr #2 comdat align 2 {
  %4 = alloca ptr, align 8
  %5 = alloca ptr, align 8
  %6 = alloca i64, align 8
  store ptr %0, ptr %4, align 8, !tbaa !35
  store ptr %1, ptr %5, align 8, !tbaa !11
  store i64 %2, ptr %6, align 8, !tbaa !14
  %7 = load ptr, ptr %4, align 8
  %8 = getelementptr inbounds nuw %"class.Luau::DenseHashMap", ptr %7, i32 0, i32 0
  %9 = load ptr, ptr %5, align 8, !tbaa !11
  %10 = load i64, ptr %6, align 8, !tbaa !14
  call void @_ZN4Luau6detail14DenseHashTableIPNS_8AstLocalESt4pairIS3_mES4_IKS3_mENS0_16ItemInterfaceMapIS3_mEENS_16DenseHashPointerESt8equal_toIS3_EEC2ERS6_m(ptr noundef nonnull align 8 dereferenceable(34) %8, ptr noundef nonnull align 8 dereferenceable(8) %9, i64 noundef %10)
  ret void
}

; Function Attrs: inlinehint mustprogress nounwind uwtable
define linkonce_odr dso_local void @_ZN4Luau10AstVisitorC2Ev(ptr noundef nonnull align 8 dereferenceable(8) %0) unnamed_addr #3 comdat align 2 {
  %2 = alloca ptr, align 8
  store ptr %0, ptr %2, align 8, !tbaa !46
  %3 = load ptr, ptr %2, align 8
  store ptr getelementptr inbounds inrange(-16, 496) ({ [64 x ptr] }, ptr @_ZTVN4Luau10AstVisitorE, i32 0, i32 0, i32 2), ptr %3, align 8, !tbaa !20
  ret void
}

; Function Attrs: inlinehint mustprogress nounwind uwtable
define linkonce_odr dso_local void @_ZN4Luau7Compile11CostVisitorD2Ev(ptr noundef nonnull align 8 dereferenceable(72) %0) unnamed_addr #3 comdat align 2 {
  %2 = alloca ptr, align 8
  store ptr %0, ptr %2, align 8, !tbaa !32
  %3 = load ptr, ptr %2, align 8
  store ptr getelementptr inbounds inrange(-16, 496) ({ [64 x ptr] }, ptr @_ZTVN4Luau7Compile11CostVisitorE, i32 0, i32 0, i32 2), ptr %3, align 8, !tbaa !20
  %4 = getelementptr inbounds nuw %"struct.Luau::Compile::CostVisitor", ptr %3, i32 0, i32 2
  call void @_ZN4Luau12DenseHashMapIPNS_8AstLocalEmNS_16DenseHashPointerESt8equal_toIS2_EED2Ev(ptr noundef nonnull align 8 dereferenceable(40) %4) #10
  call void @_ZN4Luau10AstVisitorD2Ev(ptr noundef nonnull align 8 dereferenceable(8) %3) #10
  ret void
}

; Function Attrs: mustprogress uwtable
define linkonce_odr dso_local void @_ZN4Luau7Compile11CostVisitorC2ERKNS_12DenseHashMapIPNS_11AstExprCallEiNS_16DenseHashPointerESt8equal_toIS4_EEE(ptr noundef nonnull align 8 dereferenceable(72) %0, ptr noundef nonnull align 8 dereferenceable(40) %1) unnamed_addr #2 comdat align 2 personality ptr @__gxx_personality_v0 {
  %3 = alloca ptr, align 8
  %4 = alloca ptr, align 8
  %5 = alloca ptr, align 8
  %6 = alloca ptr, align 8
  %7 = alloca i32, align 4
  store ptr %0, ptr %3, align 8, !tbaa !32
  store ptr %1, ptr %4, align 8, !tbaa !16
  %8 = load ptr, ptr %3, align 8
  call void @_ZN4Luau10AstVisitorC2Ev(ptr noundef nonnull align 8 dereferenceable(8) %8) #10
  store ptr getelementptr inbounds inrange(-16, 496) ({ [64 x ptr] }, ptr @_ZTVN4Luau7Compile11CostVisitorE, i32 0, i32 0, i32 2), ptr %8, align 8, !tbaa !20
  %9 = getelementptr inbounds nuw %"struct.Luau::Compile::CostVisitor", ptr %8, i32 0, i32 1
  %10 = load ptr, ptr %4, align 8, !tbaa !16
  store ptr %10, ptr %9, align 8, !tbaa !16
  %11 = getelementptr inbounds nuw %"struct.Luau::Compile::CostVisitor", ptr %8, i32 0, i32 2
  call void @llvm.lifetime.start.p0(i64 8, ptr %5) #10
  store ptr null, ptr %5, align 8, !tbaa !34
  invoke void @_ZN4Luau12DenseHashMapIPNS_8AstLocalEmNS_16DenseHashPointerESt8equal_toIS2_EEC2ERKS2_m(ptr noundef nonnull align 8 dereferenceable(40) %11, ptr noundef nonnull align 8 dereferenceable(8) %5, i64 noundef 0)
          to label %12 unwind label %15

12:                                               ; preds = %2
  call void @llvm.lifetime.end.p0(i64 8, ptr %5) #10
  %13 = getelementptr inbounds nuw %"struct.Luau::Compile::CostVisitor", ptr %8, i32 0, i32 3
  invoke void @_ZN4Luau7Compile4CostC2Eim(ptr noundef nonnull align 8 dereferenceable(16) %13, i32 noundef 0, i64 noundef 0)
          to label %14 unwind label %19

14:                                               ; preds = %12
  ret void

15:                                               ; preds = %2
  %16 = landingpad { ptr, i32 }
          cleanup
  %17 = extractvalue { ptr, i32 } %16, 0
  store ptr %17, ptr %6, align 8
  %18 = extractvalue { ptr, i32 } %16, 1
  store i32 %18, ptr %7, align 4
  call void @llvm.lifetime.end.p0(i64 8, ptr %5) #10
  br label %23

19:                                               ; preds = %12
  %20 = landingpad { ptr, i32 }
          cleanup
  %21 = extractvalue { ptr, i32 } %20, 0
  store ptr %21, ptr %6, align 8
  %22 = extractvalue { ptr, i32 } %20, 1
  store i32 %22, ptr %7, align 4
  call void @_ZN4Luau12DenseHashMapIPNS_8AstLocalEmNS_16DenseHashPointerESt8equal_toIS2_EED2Ev(ptr noundef nonnull align 8 dereferenceable(40) %11) #10
  br label %23

23:                                               ; preds = %19, %15
  call void @_ZN4Luau10AstVisitorD2Ev(ptr noundef nonnull align 8 dereferenceable(8) %8) #10
  br label %24

24:                                               ; preds = %23
  %25 = load ptr, ptr %6, align 8
  %26 = load i32, ptr %7, align 4
  %27 = insertvalue { ptr, i32 } poison, ptr %25, 0
  %28 = insertvalue { ptr, i32 } %27, i32 %26, 1
  resume { ptr, i32 } %28
}

; Function Attrs: mustprogress uwtable
define dso_local noundef i64 @_ZN4Luau7Compile9modelCostEPNS_7AstNodeEPKPNS_8AstLocalEmRKNS_12DenseHashMapIPNS_11AstExprCallEiNS_16DenseHashPointerESt8equal_toIS9_EEE(ptr noundef %0, ptr noundef %1, i64 noundef %2, ptr noundef nonnull align 8 dereferenceable(40) %3) #2 personality ptr @__gxx_personality_v0 {
  %5 = alloca ptr, align 8
  %6 = alloca ptr, align 8
  %7 = alloca i64, align 8
  %8 = alloca ptr, align 8
  %9 = alloca %"struct.Luau::Compile::CostVisitor", align 8
  %10 = alloca i64, align 8
  %11 = alloca ptr, align 8
  %12 = alloca i32, align 4
  store ptr %0, ptr %5, align 8, !tbaa !8
  store ptr %1, ptr %6, align 8, !tbaa !11
  store i64 %2, ptr %7, align 8, !tbaa !14
  store ptr %3, ptr %8, align 8, !tbaa !16
  call void @llvm.lifetime.start.p0(i64 72, ptr %9) #10
  %13 = load ptr, ptr %8, align 8, !tbaa !16
  call void @_ZN4Luau7Compile11CostVisitorC2ERKNS_12DenseHashMapIPNS_11AstExprCallEiNS_16DenseHashPointerESt8equal_toIS4_EEE(ptr noundef nonnull align 8 dereferenceable(72) %9, ptr noundef nonnull align 8 dereferenceable(40) %13)
  call void @llvm.lifetime.start.p0(i64 8, ptr %10) #10
  store i64 0, ptr %10, align 8, !tbaa !14
  br label %14

14:                                               ; preds = %35, %4
  %15 = load i64, ptr %10, align 8, !tbaa !14
  %16 = load i64, ptr %7, align 8, !tbaa !14
  %17 = icmp ult i64 %15, %16
  br i1 %17, label %18, label %21

18:                                               ; preds = %14
  %19 = load i64, ptr %10, align 8, !tbaa !14
  %20 = icmp ult i64 %19, 7
  br label %21

21:                                               ; preds = %18, %14
  %22 = phi i1 [ false, %14 ], [ %20, %18 ]
  br i1 %22, label %24, label %23

23:                                               ; preds = %21
  call void @llvm.lifetime.end.p0(i64 8, ptr %10) #10
  br label %42

24:                                               ; preds = %21
  %25 = load i64, ptr %10, align 8, !tbaa !14
  %26 = mul i64 %25, 8
  %27 = add i64 %26, 8
  %28 = shl i64 255, %27
  %29 = getelementptr inbounds nuw %"struct.Luau::Compile::CostVisitor", ptr %9, i32 0, i32 2
  %30 = load ptr, ptr %6, align 8, !tbaa !11
  %31 = load i64, ptr %10, align 8, !tbaa !14
  %32 = getelementptr inbounds nuw ptr, ptr %30, i64 %31
  %33 = invoke noundef nonnull align 8 dereferenceable(8) ptr @_ZN4Luau12DenseHashMapIPNS_8AstLocalEmNS_16DenseHashPointerESt8equal_toIS2_EEixERKS2_(ptr noundef nonnull align 8 dereferenceable(40) %29, ptr noundef nonnull align 8 dereferenceable(8) %32)
          to label %34 unwind label %38

34:                                               ; preds = %24
  store i64 %28, ptr %33, align 8, !tbaa !14
  br label %35

35:                                               ; preds = %34
  %36 = load i64, ptr %10, align 8, !tbaa !14
  %37 = add i64 %36, 1
  store i64 %37, ptr %10, align 8, !tbaa !14
  br label %14, !llvm.loop !18

38:                                               ; preds = %24
  %39 = landingpad { ptr, i32 }
          cleanup
  %40 = extractvalue { ptr, i32 } %39, 0
  store ptr %40, ptr %11, align 8
  %41 = extractvalue { ptr, i32 } %39, 1
  store i32 %41, ptr %12, align 4
  call void @llvm.lifetime.end.p0(i64 8, ptr %10) #10
  br label %55

42:                                               ; preds = %23
  %43 = load ptr, ptr %5, align 8, !tbaa !8
  %44 = load ptr, ptr %43, align 8, !tbaa !20
  %45 = getelementptr inbounds ptr, ptr %44, i64 0
  %46 = load ptr, ptr %45, align 8
  invoke void %46(ptr noundef nonnull align 8 dereferenceable(28) %43, ptr noundef %9)
          to label %47 unwind label %51

47:                                               ; preds = %42
  %48 = getelementptr inbounds nuw %"struct.Luau::Compile::CostVisitor", ptr %9, i32 0, i32 3
  %49 = getelementptr inbounds nuw %"struct.Luau::Compile::Cost", ptr %48, i32 0, i32 0
  %50 = load i64, ptr %49, align 8, !tbaa !22
  call void @_ZN4Luau7Compile11CostVisitorD2Ev(ptr noundef nonnull align 8 dereferenceable(72) %9) #10
  call void @llvm.lifetime.end.p0(i64 72, ptr %9) #10
  ret i64 %50

51:                                               ; preds = %42
  %52 = landingpad { ptr, i32 }
          cleanup
  %53 = extractvalue { ptr, i32 } %52, 0
  store ptr %53, ptr %11, align 8
  %54 = extractvalue { ptr, i32 } %52, 1
  store i32 %54, ptr %12, align 4
  br label %55

55:                                               ; preds = %51, %38
  call void @_ZN4Luau7Compile11CostVisitorD2Ev(ptr noundef nonnull align 8 dereferenceable(72) %9) #10
  call void @llvm.lifetime.end.p0(i64 72, ptr %9) #10
  br label %56

56:                                               ; preds = %55
  %57 = load ptr, ptr %11, align 8
  %58 = load i32, ptr %12, align 4
  %59 = insertvalue { ptr, i32 } poison, ptr %57, 0
  %60 = insertvalue { ptr, i32 } %59, i32 %58, 1
  resume { ptr, i32 } %60
}