; Function Attrs: mustprogress uwtable
define dso_local noundef i64 @_ZN4Luau7Compile9modelCostEPNS_7AstNodeEPKPNS_8AstLocalEmRKNS_12DenseHashMapIPNS_11AstExprCallEiNS_16DenseHashPointerESt8equal_toIS9_EEE(ptr noundef %0, ptr noundef %1, i64 noundef %2, ptr noundef nonnull align 8 dereferenceable(40) %3) local_unnamed_addr #2 personality ptr @__gxx_personality_v0 {
  %5 = alloca %"struct.Luau::Compile::CostVisitor", align 8
  call void @llvm.lifetime.start.p0(i64 72, ptr nonnull %5) #12
  store ptr getelementptr inbounds nuw inrange(-16, 496) (i8, ptr @_ZTVN4Luau7Compile11CostVisitorE, i64 16), ptr %5, align 8, !tbaa !8
  %6 = getelementptr inbounds nuw i8, ptr %5, i64 8
  store ptr %3, ptr %6, align 8, !tbaa !10
  %7 = getelementptr inbounds nuw i8, ptr %5, i64 16
  %8 = getelementptr inbounds nuw i8, ptr %5, i64 56
  call void @llvm.memset.p0.i64(ptr noundef nonnull align 8 dereferenceable(32) %7, i8 0, i64 32, i1 false)
  call void @llvm.memset.p0.i64(ptr noundef nonnull align 8 dereferenceable(16) %8, i8 0, i64 16, i1 false)
  %invariant.umin = tail call i64 @llvm.umin.i64(i64 %2, i64 7)
  %.not = icmp eq i64 %2, 0
  br i1 %.not, label %._crit_edge, label %.lr.ph

._crit_edge:                                      ; preds = %13, %4
  %9 = load ptr, ptr %0, align 8, !tbaa !8
  %10 = load ptr, ptr %9, align 8
  invoke void %10(ptr noundef nonnull align 8 dereferenceable(28) %0, ptr noundef nonnull %5)
          to label %19 unwind label %23

.lr.ph:                                           ; preds = %4, %13
  %.01115 = phi i64 [ %16, %13 ], [ 0, %4 ]
  %11 = getelementptr inbounds nuw ptr, ptr %1, i64 %.01115
  %12 = invoke noundef nonnull align 8 dereferenceable(8) ptr @_ZN4Luau12DenseHashMapIPNS_8AstLocalEmNS_16DenseHashPointerESt8equal_toIS2_EEixERKS2_(ptr noundef nonnull align 8 dereferenceable(40) %7, ptr noundef nonnull align 8 dereferenceable(8) %11)
          to label %13 unwind label %17

13:                                               ; preds = %.lr.ph
  %14 = shl nuw nsw i64 %.01115, 3
  %15 = shl nuw i64 65280, %14
  store i64 %15, ptr %12, align 8, !tbaa !13
  %16 = add nuw nsw i64 %.01115, 1
  %exitcond.not = icmp eq i64 %16, %invariant.umin
  br i1 %exitcond.not, label %._crit_edge, label %.lr.ph, !llvm.loop !15

17:                                               ; preds = %.lr.ph
  %18 = landingpad { ptr, i32 }
          cleanup
  br label %25

19:                                               ; preds = %._crit_edge
  %20 = load i64, ptr %8, align 8, !tbaa !17
  store ptr getelementptr inbounds nuw inrange(-16, 496) (i8, ptr @_ZTVN4Luau7Compile11CostVisitorE, i64 16), ptr %5, align 8, !tbaa !8
  %21 = load ptr, ptr %7, align 8, !tbaa !27
  %.not.i.i.i = icmp eq ptr %21, null
  br i1 %.not.i.i.i, label %_ZN4Luau7Compile11CostVisitorD2Ev.exit, label %22

22:                                               ; preds = %19
  call void @_ZdlPv(ptr noundef nonnull %21) #12
  br label %_ZN4Luau7Compile11CostVisitorD2Ev.exit

_ZN4Luau7Compile11CostVisitorD2Ev.exit:           ; preds = %19, %22
  call void @llvm.lifetime.end.p0(i64 72, ptr nonnull %5) #12
  ret i64 %20

23:                                               ; preds = %._crit_edge
  %24 = landingpad { ptr, i32 }
          cleanup
  br label %25

25:                                               ; preds = %23, %17
  %.pn = phi { ptr, i32 } [ %18, %17 ], [ %24, %23 ]
  store ptr getelementptr inbounds nuw inrange(-16, 496) (i8, ptr @_ZTVN4Luau7Compile11CostVisitorE, i64 16), ptr %5, align 8, !tbaa !8
  %26 = load ptr, ptr %7, align 8, !tbaa !27
  %.not.i.i.i13 = icmp eq ptr %26, null
  br i1 %.not.i.i.i13, label %_ZN4Luau7Compile11CostVisitorD2Ev.exit14, label %27

27:                                               ; preds = %25
  call void @_ZdlPv(ptr noundef nonnull %26) #12
  br label %_ZN4Luau7Compile11CostVisitorD2Ev.exit14

_ZN4Luau7Compile11CostVisitorD2Ev.exit14:         ; preds = %25, %27
  call void @llvm.lifetime.end.p0(i64 72, ptr nonnull %5) #12
  resume { ptr, i32 } %.pn
}